target datalayout = "e-m:e-p270:32:32-p271:32:32-p272:64:64-i64:64-i128:128-f80:128-n8:16:32:64-S128"
target triple = "x86_64-pc-linux-gnu"

%struct.mbedtls_gcm_context = type { %struct.mbedtls_cipher_context_t, [16 x i64], [16 x i64], i64, i64, [16 x i8], [16 x i8], [16 x i8], i32 }
%struct.mbedtls_cipher_context_t = type { ptr, i32, i32, [16 x i8], i64, [16 x i8], i64, ptr }

; Function Attrs: mustprogress uwtable
define internal noundef i32 @_ZL8gcm_maskP19mbedtls_gcm_contextPhmmPKhS1_(ptr noundef %0, ptr noundef %1, i64 noundef %2, i64 noundef %3, ptr noundef %4, ptr noundef %5) #2 {
  %7 = alloca i32, align 4
  %8 = alloca ptr, align 8
  %9 = alloca ptr, align 8
  %10 = alloca i64, align 8
  %11 = alloca i64, align 8
  %12 = alloca ptr, align 8
  %13 = alloca ptr, align 8
  %14 = alloca i64, align 8
  %15 = alloca i64, align 8
  %16 = alloca i32, align 4
  %17 = alloca i32, align 4
  store ptr %0, ptr %8, align 8, !tbaa !3
  store ptr %1, ptr %9, align 8, !tbaa !10
  store i64 %2, ptr %10, align 8, !tbaa !21
  store i64 %3, ptr %11, align 8, !tbaa !21
  store ptr %4, ptr %12, align 8, !tbaa !10
  store ptr %5, ptr %13, align 8, !tbaa !10
  call void @llvm.lifetime.start.p0(i64 8, ptr %14) #6
  call void @llvm.lifetime.start.p0(i64 8, ptr %15) #6
  store i64 0, ptr %15, align 8, !tbaa !21
  call void @llvm.lifetime.start.p0(i64 4, ptr %16) #6
  store i32 -110, ptr %16, align 4, !tbaa !12
  %18 = load ptr, ptr %8, align 8, !tbaa !3
  %19 = getelementptr inbounds nuw %struct.mbedtls_gcm_context, ptr %18, i32 0, i32 0
  %20 = load ptr, ptr %8, align 8, !tbaa !3
  %21 = getelementptr inbounds nuw %struct.mbedtls_gcm_context, ptr %20, i32 0, i32 6
  %22 = getelementptr inbounds [16 x i8], ptr %21, i64 0, i64 0
  %23 = load ptr, ptr %9, align 8, !tbaa !10
  %24 = call i32 @mbedtls_cipher_update(ptr noundef %19, ptr noundef %22, i64 noundef 16, ptr noundef %23, ptr noundef %15)
  store i32 %24, ptr %16, align 4, !tbaa !12
  %25 = icmp ne i32 %24, 0
  br i1 %25, label %26, label %29

26:                                               ; preds = %6
  %27 = load ptr, ptr %9, align 8, !tbaa !10
  call void @mbedtls_platform_zeroize(ptr noundef %27, i64 noundef 16)
  %28 = load i32, ptr %16, align 4, !tbaa !12
  store i32 %28, ptr %7, align 4
  store i32 1, ptr %17, align 4
  br label %98

29:                                               ; preds = %6
  store i64 0, ptr %14, align 8, !tbaa !21
  br label %30

30:                                               ; preds = %94, %29
  %31 = load i64, ptr %14, align 8, !tbaa !21
  %32 = load i64, ptr %11, align 8, !tbaa !21
  %33 = icmp ult i64 %31, %32
  br i1 %33, label %34, label %97

34:                                               ; preds = %30
  %35 = load ptr, ptr %8, align 8, !tbaa !3
  %36 = getelementptr inbounds nuw %struct.mbedtls_gcm_context, ptr %35, i32 0, i32 8
  %37 = load i32, ptr %36, align 8, !tbaa !30
  %38 = icmp eq i32 %37, 0
  br i1 %38, label %39, label %55

39:                                               ; preds = %34
  %40 = load ptr, ptr %12, align 8, !tbaa !10
  %41 = load i64, ptr %14, align 8, !tbaa !21
  %42 = getelementptr inbounds nuw i8, ptr %40, i64 %41
  %43 = load i8, ptr %42, align 1, !tbaa !23
  %44 = zext i8 %43 to i32
  %45 = load ptr, ptr %8, align 8, !tbaa !3
  %46 = getelementptr inbounds nuw %struct.mbedtls_gcm_context, ptr %45, i32 0, i32 7
  %47 = load i64, ptr %10, align 8, !tbaa !21
  %48 = load i64, ptr %14, align 8, !tbaa !21
  %49 = add i64 %47, %48
  %50 = getelementptr inbounds nuw [16 x i8], ptr %46, i64 0, i64 %49
  %51 = load i8, ptr %50, align 1, !tbaa !23
  %52 = zext i8 %51 to i32
  %53 = xor i32 %52, %44
  %54 = trunc i32 %53 to i8
  store i8 %54, ptr %50, align 1, !tbaa !23
  br label %55

55:                                               ; preds = %39, %34
  %56 = load ptr, ptr %9, align 8, !tbaa !10
  %57 = load i64, ptr %10, align 8, !tbaa !21
  %58 = load i64, ptr %14, align 8, !tbaa !21
  %59 = add i64 %57, %58
  %60 = getelementptr inbounds nuw i8, ptr %56, i64 %59
  %61 = load i8, ptr %60, align 1, !tbaa !23
  %62 = zext i8 %61 to i32
  %63 = load ptr, ptr %12, align 8, !tbaa !10
  %64 = load i64, ptr %14, align 8, !tbaa !21
  %65 = getelementptr inbounds nuw i8, ptr %63, i64 %64
  %66 = load i8, ptr %65, align 1, !tbaa !23
  %67 = zext i8 %66 to i32
  %68 = xor i32 %62, %67
  %69 = trunc i32 %68 to i8
  %70 = load ptr, ptr %13, align 8, !tbaa !10
  %71 = load i64, ptr %14, align 8, !tbaa !21
  %72 = getelementptr inbounds nuw i8, ptr %70, i64 %71
  store i8 %69, ptr %72, align 1, !tbaa !23
  %73 = load ptr, ptr %8, align 8, !tbaa !3
  %74 = getelementptr inbounds nuw %struct.mbedtls_gcm_context, ptr %73, i32 0, i32 8
  %75 = load i32, ptr %74, align 8, !tbaa !30
  %76 = icmp eq i32 %75, 1
  br i1 %76, label %77, label %93

77:                                               ; preds = %55
  %78 = load ptr, ptr %13, align 8, !tbaa !10
  %79 = load i64, ptr %14, align 8, !tbaa !21
  %80 = getelementptr inbounds nuw i8, ptr %78, i64 %79
  %81 = load i8, ptr %80, align 1, !tbaa !23
  %82 = zext i8 %81 to i32
  %83 = load ptr, ptr %8, align 8, !tbaa !3
  %84 = getelementptr inbounds nuw %struct.mbedtls_gcm_context, ptr %83, i32 0, i32 7
  %85 = load i64, ptr %10, align 8, !tbaa !21
  %86 = load i64, ptr %14, align 8, !tbaa !21
  %87 = add i64 %85, %86
  %88 = getelementptr inbounds nuw [16 x i8], ptr %84, i64 0, i64 %87
  %89 = load i8, ptr %88, align 1, !tbaa !23
  %90 = zext i8 %89 to i32
  %91 = xor i32 %90, %82
  %92 = trunc i32 %91 to i8
  store i8 %92, ptr %88, align 1, !tbaa !23
  br label %93

93:                                               ; preds = %77, %55
  br label %94

94:                                               ; preds = %93
  %95 = load i64, ptr %14, align 8, !tbaa !21
  %96 = add i64 %95, 1
  store i64 %96, ptr %14, align 8, !tbaa !21
  br label %30, !llvm.loop !45

97:                                               ; preds = %30
  store i32 0, ptr %7, align 4
  store i32 1, ptr %17, align 4
  br label %98

98:                                               ; preds = %97, %26
  call void @llvm.lifetime.end.p0(i64 4, ptr %16) #6
  call void @llvm.lifetime.end.p0(i64 8, ptr %15) #6
  call void @llvm.lifetime.end.p0(i64 8, ptr %14) #6
  %99 = load i32, ptr %7, align 4
  ret i32 %99
}