; Function Attrs: mustprogress uwtable
define internal fastcc noundef i32 @_ZL8gcm_maskP19mbedtls_gcm_contextPhmmPKhS1_(ptr noundef %0, ptr noundef nonnull %1, i64 noundef range(i64 0, 16) %2, i64 noundef range(i64 1, 17) %3, ptr noundef readonly captures(none) %4, ptr noundef writeonly captures(none) %5) unnamed_addr #2 {
  %7 = alloca i64, align 8
  call void @llvm.lifetime.start.p0(i64 8, ptr nonnull %7) #8
  store i64 0, ptr %7, align 8, !tbaa !13
  %8 = getelementptr inbounds nuw i8, ptr %0, i64 360
  %9 = call i32 @mbedtls_cipher_update(ptr noundef %0, ptr noundef nonnull %8, i64 noundef 16, ptr noundef nonnull %1, ptr noundef nonnull %7)
  %.not = icmp eq i32 %9, 0
  br i1 %.not, label %.preheader, label %12

.preheader:                                       ; preds = %6
  %10 = getelementptr inbounds nuw i8, ptr %0, i64 392
  %11 = getelementptr inbounds nuw i8, ptr %0, i64 376
  br label %13

12:                                               ; preds = %6
  call void @mbedtls_platform_zeroize(ptr noundef nonnull %1, i64 noundef 16)
  br label %.loopexit

13:                                               ; preds = %.preheader, %36
  %.029 = phi i64 [ 0, %.preheader ], [ %37, %36 ]
  %14 = load i32, ptr %10, align 8, !tbaa !20
  %15 = icmp eq i32 %14, 0
  br i1 %15, label %16, label %._crit_edge

._crit_edge:                                      ; preds = %13
  %.pre = add nuw nsw i64 %.029, %2
  br label %23

16:                                               ; preds = %13
  %17 = getelementptr inbounds nuw i8, ptr %4, i64 %.029
  %18 = load i8, ptr %17, align 1, !tbaa !15
  %19 = add nuw nsw i64 %.029, %2
  %20 = getelementptr inbounds nuw [16 x i8], ptr %11, i64 0, i64 %19
  %21 = load i8, ptr %20, align 1, !tbaa !15
  %22 = xor i8 %21, %18
  store i8 %22, ptr %20, align 1, !tbaa !15
  br label %23

23:                                               ; preds = %._crit_edge, %16
  %.pre-phi = phi i64 [ %.pre, %._crit_edge ], [ %19, %16 ]
  %24 = getelementptr inbounds nuw i8, ptr %1, i64 %.pre-phi
  %25 = load i8, ptr %24, align 1, !tbaa !15
  %26 = getelementptr inbounds nuw i8, ptr %4, i64 %.029
  %27 = load i8, ptr %26, align 1, !tbaa !15
  %28 = xor i8 %27, %25
  %29 = getelementptr inbounds nuw i8, ptr %5, i64 %.029
  store i8 %28, ptr %29, align 1, !tbaa !15
  %30 = load i32, ptr %10, align 8, !tbaa !20
  %31 = icmp eq i32 %30, 1
  br i1 %31, label %32, label %36

32:                                               ; preds = %23
  %33 = getelementptr inbounds nuw [16 x i8], ptr %11, i64 0, i64 %.pre-phi
  %34 = load i8, ptr %33, align 1, !tbaa !15
  %35 = xor i8 %34, %28
  store i8 %35, ptr %33, align 1, !tbaa !15
  br label %36

36:                                               ; preds = %23, %32
  %37 = add nuw nsw i64 %.029, 1
  %exitcond.not = icmp eq i64 %37, %3
  br i1 %exitcond.not, label %.loopexit, label %13, !llvm.loop !35

.loopexit:                                        ; preds = %36, %12
  %.027 = phi i32 [ %9, %12 ], [ 0, %36 ]
  call void @llvm.lifetime.end.p0(i64 8, ptr nonnull %7) #8
  ret i32 %.027
}